target datalayout = "e-m:e-p270:32:32-p271:32:32-p272:64:64-i64:64-i128:128-f80:128-n8:16:32:64-S128"
target triple = "x86_64-unknown-linux-gnu"

; Function Attrs: mustprogress nounwind uwtable
define i32 @ucol_mergeSortkeys_75(ptr noundef %src1, i32 noundef %src1Length, ptr noundef %src2, i32 noundef %src2Length, ptr noundef %dest, i32 noundef %destCapacity) #1 {
entry:
  %retval = alloca i32, align 4
  %src1.addr = alloca ptr, align 8
  %src1Length.addr = alloca i32, align 4
  %src2.addr = alloca ptr, align 8
  %src2Length.addr = alloca i32, align 4
  %dest.addr = alloca ptr, align 8
  %destCapacity.addr = alloca i32, align 4
  %destLength = alloca i32, align 4
  %p = alloca ptr, align 8
  %b = alloca i8, align 1
  store ptr %src1, ptr %src1.addr, align 8
  store i32 %src1Length, ptr %src1Length.addr, align 4
  store ptr %src2, ptr %src2.addr, align 8
  store i32 %src2Length, ptr %src2Length.addr, align 4
  store ptr %dest, ptr %dest.addr, align 8
  store i32 %destCapacity, ptr %destCapacity.addr, align 4
  %0 = load ptr, ptr %src1.addr, align 8
  %cmp = icmp eq ptr %0, null
  br i1 %cmp, label %if.then, label %lor.lhs.false

lor.lhs.false:                                    ; preds = %entry
  %1 = load i32, ptr %src1Length.addr, align 4
  %cmp1 = icmp slt i32 %1, -1
  br i1 %cmp1, label %if.then, label %lor.lhs.false2

lor.lhs.false2:                                   ; preds = %lor.lhs.false
  %2 = load i32, ptr %src1Length.addr, align 4
  %cmp3 = icmp eq i32 %2, 0
  br i1 %cmp3, label %if.then, label %lor.lhs.false4

lor.lhs.false4:                                   ; preds = %lor.lhs.false2
  %3 = load i32, ptr %src1Length.addr, align 4
  %cmp5 = icmp sgt i32 %3, 0
  br i1 %cmp5, label %land.lhs.true, label %lor.lhs.false7

land.lhs.true:                                    ; preds = %lor.lhs.false4
  %4 = load ptr, ptr %src1.addr, align 8
  %5 = load i32, ptr %src1Length.addr, align 4
  %sub = sub nsw i32 %5, 1
  %idxprom = sext i32 %sub to i64
  %arrayidx = getelementptr inbounds i8, ptr %4, i64 %idxprom
  %6 = load i8, ptr %arrayidx, align 1
  %conv = zext i8 %6 to i32
  %cmp6 = icmp ne i32 %conv, 0
  br i1 %cmp6, label %if.then, label %lor.lhs.false7

lor.lhs.false7:                                   ; preds = %land.lhs.true, %lor.lhs.false4
  %7 = load ptr, ptr %src2.addr, align 8
  %cmp8 = icmp eq ptr %7, null
  br i1 %cmp8, label %if.then, label %lor.lhs.false9

lor.lhs.false9:                                   ; preds = %lor.lhs.false7
  %8 = load i32, ptr %src2Length.addr, align 4
  %cmp10 = icmp slt i32 %8, -1
  br i1 %cmp10, label %if.then, label %lor.lhs.false11

lor.lhs.false11:                                  ; preds = %lor.lhs.false9
  %9 = load i32, ptr %src2Length.addr, align 4
  %cmp12 = icmp eq i32 %9, 0
  br i1 %cmp12, label %if.then, label %lor.lhs.false13

lor.lhs.false13:                                  ; preds = %lor.lhs.false11
  %10 = load i32, ptr %src2Length.addr, align 4
  %cmp14 = icmp sgt i32 %10, 0
  br i1 %cmp14, label %land.lhs.true15, label %lor.lhs.false21

land.lhs.true15:                                  ; preds = %lor.lhs.false13
  %11 = load ptr, ptr %src2.addr, align 8
  %12 = load i32, ptr %src2Length.addr, align 4
  %sub16 = sub nsw i32 %12, 1
  %idxprom17 = sext i32 %sub16 to i64
  %arrayidx18 = getelementptr inbounds i8, ptr %11, i64 %idxprom17
  %13 = load i8, ptr %arrayidx18, align 1
  %conv19 = zext i8 %13 to i32
  %cmp20 = icmp ne i32 %conv19, 0
  br i1 %cmp20, label %if.then, label %lor.lhs.false21

lor.lhs.false21:                                  ; preds = %land.lhs.true15, %lor.lhs.false13
  %14 = load i32, ptr %destCapacity.addr, align 4
  %cmp22 = icmp slt i32 %14, 0
  br i1 %cmp22, label %if.then, label %lor.lhs.false23

lor.lhs.false23:                                  ; preds = %lor.lhs.false21
  %15 = load i32, ptr %destCapacity.addr, align 4
  %cmp24 = icmp sgt i32 %15, 0
  br i1 %cmp24, label %land.lhs.true25, label %if.end31

land.lhs.true25:                                  ; preds = %lor.lhs.false23
  %16 = load ptr, ptr %dest.addr, align 8
  %cmp26 = icmp eq ptr %16, null
  br i1 %cmp26, label %if.then, label %if.end31

if.then:                                          ; preds = %land.lhs.true25, %lor.lhs.false21, %land.lhs.true15, %lor.lhs.false11, %lor.lhs.false9, %lor.lhs.false7, %land.lhs.true, %lor.lhs.false2, %lor.lhs.false, %entry
  %17 = load ptr, ptr %dest.addr, align 8
  %cmp27 = icmp ne ptr %17, null
  br i1 %cmp27, label %land.lhs.true28, label %if.end

land.lhs.true28:                                  ; preds = %if.then
  %18 = load i32, ptr %destCapacity.addr, align 4
  %cmp29 = icmp sgt i32 %18, 0
  br i1 %cmp29, label %if.then30, label %if.end

if.then30:                                        ; preds = %land.lhs.true28
  %19 = load ptr, ptr %dest.addr, align 8
  store i8 0, ptr %19, align 1
  br label %if.end

if.end:                                           ; preds = %if.then30, %land.lhs.true28, %if.then
  store i32 0, ptr %retval, align 4
  br label %return

if.end31:                                         ; preds = %land.lhs.true25, %lor.lhs.false23
  %20 = load i32, ptr %src1Length.addr, align 4
  %cmp32 = icmp slt i32 %20, 0
  br i1 %cmp32, label %if.then33, label %if.end35

if.then33:                                        ; preds = %if.end31
  %21 = load ptr, ptr %src1.addr, align 8
  %call = call i64 @strlen(ptr noundef %21) #6
  %conv34 = trunc i64 %call to i32
  %add = add nsw i32 %conv34, 1
  store i32 %add, ptr %src1Length.addr, align 4
  br label %if.end35

if.end35:                                         ; preds = %if.then33, %if.end31
  %22 = load i32, ptr %src2Length.addr, align 4
  %cmp36 = icmp slt i32 %22, 0
  br i1 %cmp36, label %if.then37, label %if.end41

if.then37:                                        ; preds = %if.end35
  %23 = load ptr, ptr %src2.addr, align 8
  %call38 = call i64 @strlen(ptr noundef %23) #6
  %conv39 = trunc i64 %call38 to i32
  %add40 = add nsw i32 %conv39, 1
  store i32 %add40, ptr %src2Length.addr, align 4
  br label %if.end41

if.end41:                                         ; preds = %if.then37, %if.end35
  %24 = load i32, ptr %src1Length.addr, align 4
  %25 = load i32, ptr %src2Length.addr, align 4
  %add42 = add nsw i32 %24, %25
  store i32 %add42, ptr %destLength, align 4
  %26 = load i32, ptr %destLength, align 4
  %27 = load i32, ptr %destCapacity.addr, align 4
  %cmp43 = icmp sgt i32 %26, %27
  br i1 %cmp43, label %if.then44, label %if.end45

if.then44:                                        ; preds = %if.end41
  %28 = load i32, ptr %destLength, align 4
  store i32 %28, ptr %retval, align 4
  br label %return

if.end45:                                         ; preds = %if.end41
  %29 = load ptr, ptr %dest.addr, align 8
  store ptr %29, ptr %p, align 8
  br label %for.cond

for.cond:                                         ; preds = %if.end66, %if.end45
  br label %while.cond

while.cond:                                       ; preds = %while.body, %for.cond
  %30 = load ptr, ptr %src1.addr, align 8
  %31 = load i8, ptr %30, align 1
  store i8 %31, ptr %b, align 1
  %conv46 = zext i8 %31 to i32
  %cmp47 = icmp sge i32 %conv46, 2
  br i1 %cmp47, label %while.body, label %while.end

while.body:                                       ; preds = %while.cond
  %32 = load ptr, ptr %src1.addr, align 8
  %incdec.ptr = getelementptr inbounds i8, ptr %32, i32 1
  store ptr %incdec.ptr, ptr %src1.addr, align 8
  %33 = load i8, ptr %b, align 1
  %34 = load ptr, ptr %p, align 8
  %incdec.ptr48 = getelementptr inbounds i8, ptr %34, i32 1
  store ptr %incdec.ptr48, ptr %p, align 8
  store i8 %33, ptr %34, align 1
  br label %while.cond, !llvm.loop !4

while.end:                                        ; preds = %while.cond
  %35 = load ptr, ptr %p, align 8
  %incdec.ptr49 = getelementptr inbounds i8, ptr %35, i32 1
  store ptr %incdec.ptr49, ptr %p, align 8
  store i8 2, ptr %35, align 1
  br label %while.cond50

while.cond50:                                     ; preds = %while.body53, %while.end
  %36 = load ptr, ptr %src2.addr, align 8
  %37 = load i8, ptr %36, align 1
  store i8 %37, ptr %b, align 1
  %conv51 = zext i8 %37 to i32
  %cmp52 = icmp sge i32 %conv51, 2
  br i1 %cmp52, label %while.body53, label %while.end56

while.body53:                                     ; preds = %while.cond50
  %38 = load ptr, ptr %src2.addr, align 8
  %incdec.ptr54 = getelementptr inbounds i8, ptr %38, i32 1
  store ptr %incdec.ptr54, ptr %src2.addr, align 8
  %39 = load i8, ptr %b, align 1
  %40 = load ptr, ptr %p, align 8
  %incdec.ptr55 = getelementptr inbounds i8, ptr %40, i32 1
  store ptr %incdec.ptr55, ptr %p, align 8
  store i8 %39, ptr %40, align 1
  br label %while.cond50, !llvm.loop !6

while.end56:                                      ; preds = %while.cond50
  %41 = load ptr, ptr %src1.addr, align 8
  %42 = load i8, ptr %41, align 1
  %conv57 = zext i8 %42 to i32
  %cmp58 = icmp eq i32 %conv57, 1
  br i1 %cmp58, label %land.lhs.true59, label %if.else

land.lhs.true59:                                  ; preds = %while.end56
  %43 = load ptr, ptr %src2.addr, align 8
  %44 = load i8, ptr %43, align 1
  %conv60 = zext i8 %44 to i32
  %cmp61 = icmp eq i32 %conv60, 1
  br i1 %cmp61, label %if.then62, label %if.else

if.then62:                                        ; preds = %land.lhs.true59
  %45 = load ptr, ptr %src1.addr, align 8
  %incdec.ptr63 = getelementptr inbounds i8, ptr %45, i32 1
  store ptr %incdec.ptr63, ptr %src1.addr, align 8
  %46 = load ptr, ptr %src2.addr, align 8
  %incdec.ptr64 = getelementptr inbounds i8, ptr %46, i32 1
  store ptr %incdec.ptr64, ptr %src2.addr, align 8
  %47 = load ptr, ptr %p, align 8
  %incdec.ptr65 = getelementptr inbounds i8, ptr %47, i32 1
  store ptr %incdec.ptr65, ptr %p, align 8
  store i8 1, ptr %47, align 1
  br label %if.end66

if.else:                                          ; preds = %land.lhs.true59, %while.end56
  br label %for.end

if.end66:                                         ; preds = %if.then62
  br label %for.cond, !llvm.loop !7

for.end:                                          ; preds = %if.else
  %48 = load ptr, ptr %src1.addr, align 8
  %49 = load i8, ptr %48, align 1
  %conv67 = zext i8 %49 to i32
  %cmp68 = icmp ne i32 %conv67, 0
  br i1 %cmp68, label %if.then69, label %if.end70

if.then69:                                        ; preds = %for.end
  %50 = load ptr, ptr %src1.addr, align 8
  store ptr %50, ptr %src2.addr, align 8
  br label %if.end70

if.end70:                                         ; preds = %if.then69, %for.end
  br label %while.cond71

while.cond71:                                     ; preds = %while.body76, %if.end70
  %51 = load ptr, ptr %src2.addr, align 8
  %incdec.ptr72 = getelementptr inbounds i8, ptr %51, i32 1
  store ptr %incdec.ptr72, ptr %src2.addr, align 8
  %52 = load i8, ptr %51, align 1
  %53 = load ptr, ptr %p, align 8
  %incdec.ptr73 = getelementptr inbounds i8, ptr %53, i32 1
  store ptr %incdec.ptr73, ptr %p, align 8
  store i8 %52, ptr %53, align 1
  %conv74 = zext i8 %52 to i32
  %cmp75 = icmp ne i32 %conv74, 0
  br i1 %cmp75, label %while.body76, label %while.end77

while.body76:                                     ; preds = %while.cond71
  br label %while.cond71, !llvm.loop !8

while.end77:                                      ; preds = %while.cond71
  %54 = load ptr, ptr %p, align 8
  %55 = load ptr, ptr %dest.addr, align 8
  %sub.ptr.lhs.cast = ptrtoint ptr %54 to i64
  %sub.ptr.rhs.cast = ptrtoint ptr %55 to i64
  %sub.ptr.sub = sub i64 %sub.ptr.lhs.cast, %sub.ptr.rhs.cast
  %conv78 = trunc i64 %sub.ptr.sub to i32
  store i32 %conv78, ptr %retval, align 4
  br label %return

return:                                           ; preds = %while.end77, %if.then44, %if.end
  %56 = load i32, ptr %retval, align 4
  ret i32 %56
}