; Function Attrs: mustprogress nofree nounwind memory(readwrite, inaccessiblemem: none) uwtable
define i32 @ucol_mergeSortkeys_75(ptr noundef readonly %src1, i32 noundef %src1Length, ptr noundef readonly %src2, i32 noundef %src2Length, ptr noundef %dest, i32 noundef %destCapacity) local_unnamed_addr #3 {
entry:
  %cmp = icmp eq ptr %src1, null
  %cmp1 = icmp slt i32 %src1Length, -1
  %or.cond = or i1 %cmp, %cmp1
  %cmp3 = icmp eq i32 %src1Length, 0
  %or.cond1 = or i1 %cmp3, %or.cond
  br i1 %or.cond1, label %if.then, label %lor.lhs.false4

lor.lhs.false4:                                   ; preds = %entry
  %cmp5 = icmp sgt i32 %src1Length, 0
  br i1 %cmp5, label %land.lhs.true, label %lor.lhs.false7

land.lhs.true:                                    ; preds = %lor.lhs.false4
  %0 = zext nneg i32 %src1Length to i64
  %1 = getelementptr i8, ptr %src1, i64 %0
  %arrayidx = getelementptr i8, ptr %1, i64 -1
  %2 = load i8, ptr %arrayidx, align 1
  %cmp6 = icmp ne i8 %2, 0
  %cmp8 = icmp eq ptr %src2, null
  %or.cond2 = or i1 %cmp8, %cmp6
  br i1 %or.cond2, label %if.then, label %lor.lhs.false9

lor.lhs.false7:                                   ; preds = %lor.lhs.false4
  %cmp8.old = icmp eq ptr %src2, null
  br i1 %cmp8.old, label %if.then, label %lor.lhs.false9

lor.lhs.false9:                                   ; preds = %land.lhs.true, %lor.lhs.false7
  %cmp10 = icmp slt i32 %src2Length, -1
  %cmp12 = icmp eq i32 %src2Length, 0
  %or.cond4 = or i1 %cmp10, %cmp12
  br i1 %or.cond4, label %if.then, label %lor.lhs.false13

lor.lhs.false13:                                  ; preds = %lor.lhs.false9
  %cmp14 = icmp sgt i32 %src2Length, 0
  br i1 %cmp14, label %land.lhs.true15, label %lor.lhs.false21

land.lhs.true15:                                  ; preds = %lor.lhs.false13
  %3 = zext nneg i32 %src2Length to i64
  %4 = getelementptr i8, ptr %src2, i64 %3
  %arrayidx18 = getelementptr i8, ptr %4, i64 -1
  %5 = load i8, ptr %arrayidx18, align 1
  %cmp20 = icmp ne i8 %5, 0
  %cmp22 = icmp slt i32 %destCapacity, 0
  %or.cond6 = or i1 %cmp22, %cmp20
  br i1 %or.cond6, label %if.then, label %lor.lhs.false23

lor.lhs.false21:                                  ; preds = %lor.lhs.false13
  %cmp22.old = icmp slt i32 %destCapacity, 0
  br i1 %cmp22.old, label %return, label %lor.lhs.false23

lor.lhs.false23:                                  ; preds = %land.lhs.true15, %lor.lhs.false21
  %cmp24 = icmp ne i32 %destCapacity, 0
  %cmp26 = icmp eq ptr %dest, null
  %or.cond8 = and i1 %cmp26, %cmp24
  br i1 %or.cond8, label %return, label %if.end31

if.then:                                          ; preds = %land.lhs.true15, %lor.lhs.false9, %lor.lhs.false7, %land.lhs.true, %entry
  %cmp27 = icmp ne ptr %dest, null
  %cmp29 = icmp sgt i32 %destCapacity, 0
  %or.cond10 = and i1 %cmp27, %cmp29
  br i1 %or.cond10, label %if.then30, label %return

if.then30:                                        ; preds = %if.then
  store i8 0, ptr %dest, align 1
  br label %return

if.end31:                                         ; preds = %lor.lhs.false23
  %cmp32 = icmp slt i32 %src1Length, 0
  br i1 %cmp32, label %if.then33, label %if.end35

if.then33:                                        ; preds = %if.end31
  %call = tail call i64 @strlen(ptr noundef nonnull dereferenceable(1) %src1) #11
  %conv34 = trunc i64 %call to i32
  %add = add nsw i32 %conv34, 1
  br label %if.end35

if.end35:                                         ; preds = %if.then33, %if.end31
  %src1Length.addr.0 = phi i32 [ %add, %if.then33 ], [ %src1Length, %if.end31 ]
  %cmp36 = icmp slt i32 %src2Length, 0
  br i1 %cmp36, label %if.then37, label %if.end41

if.then37:                                        ; preds = %if.end35
  %call38 = tail call i64 @strlen(ptr noundef nonnull dereferenceable(1) %src2) #11
  %conv39 = trunc i64 %call38 to i32
  %add40 = add nsw i32 %conv39, 1
  br label %if.end41

if.end41:                                         ; preds = %if.then37, %if.end35
  %src2Length.addr.0 = phi i32 [ %add40, %if.then37 ], [ %src2Length, %if.end35 ]
  %add42 = add nsw i32 %src2Length.addr.0, %src1Length.addr.0
  %cmp43 = icmp sgt i32 %add42, %destCapacity
  br i1 %cmp43, label %return, label %for.cond

for.cond:                                         ; preds = %if.end41, %if.then62
  %src2.addr.0 = phi ptr [ %incdec.ptr64, %if.then62 ], [ %src2, %if.end41 ]
  %src1.addr.0 = phi ptr [ %incdec.ptr63, %if.then62 ], [ %src1, %if.end41 ]
  %p.0 = phi ptr [ %incdec.ptr65, %if.then62 ], [ %dest, %if.end41 ]
  %6 = load i8, ptr %src1.addr.0, align 1
  %cmp4756 = icmp ugt i8 %6, 1
  br i1 %cmp4756, label %while.body, label %while.end

while.body:                                       ; preds = %for.cond, %while.body
  %7 = phi i8 [ %8, %while.body ], [ %6, %for.cond ]
  %p.158 = phi ptr [ %incdec.ptr48, %while.body ], [ %p.0, %for.cond ]
  %src1.addr.157 = phi ptr [ %incdec.ptr, %while.body ], [ %src1.addr.0, %for.cond ]
  %incdec.ptr = getelementptr inbounds i8, ptr %src1.addr.157, i64 1
  %incdec.ptr48 = getelementptr inbounds i8, ptr %p.158, i64 1
  store i8 %7, ptr %p.158, align 1
  %8 = load i8, ptr %incdec.ptr, align 1
  %cmp47 = icmp ugt i8 %8, 1
  br i1 %cmp47, label %while.body, label %while.end, !llvm.loop !4

while.end:                                        ; preds = %while.body, %for.cond
  %src1.addr.1.lcssa = phi ptr [ %src1.addr.0, %for.cond ], [ %incdec.ptr, %while.body ]
  %p.1.lcssa = phi ptr [ %p.0, %for.cond ], [ %incdec.ptr48, %while.body ]
  store i8 2, ptr %p.1.lcssa, align 1
  %p.260 = getelementptr inbounds i8, ptr %p.1.lcssa, i64 1
  %9 = load i8, ptr %src2.addr.0, align 1
  %cmp5261 = icmp ugt i8 %9, 1
  br i1 %cmp5261, label %while.body53, label %while.end56

while.body53:                                     ; preds = %while.end, %while.body53
  %10 = phi i8 [ %11, %while.body53 ], [ %9, %while.end ]
  %p.263 = phi ptr [ %p.2, %while.body53 ], [ %p.260, %while.end ]
  %src2.addr.162 = phi ptr [ %incdec.ptr54, %while.body53 ], [ %src2.addr.0, %while.end ]
  %incdec.ptr54 = getelementptr inbounds i8, ptr %src2.addr.162, i64 1
  store i8 %10, ptr %p.263, align 1
  %p.2 = getelementptr inbounds i8, ptr %p.263, i64 1
  %11 = load i8, ptr %incdec.ptr54, align 1
  %cmp52 = icmp ugt i8 %11, 1
  br i1 %cmp52, label %while.body53, label %while.end56, !llvm.loop !6

while.end56:                                      ; preds = %while.body53, %while.end
  %src2.addr.1.lcssa = phi ptr [ %src2.addr.0, %while.end ], [ %incdec.ptr54, %while.body53 ]
  %p.1.pn.lcssa = phi ptr [ %p.1.lcssa, %while.end ], [ %p.263, %while.body53 ]
  %p.2.lcssa = phi ptr [ %p.260, %while.end ], [ %p.2, %while.body53 ]
  %.lcssa = phi i8 [ %9, %while.end ], [ %11, %while.body53 ]
  %12 = load i8, ptr %src1.addr.1.lcssa, align 1
  %cmp58 = icmp eq i8 %12, 1
  %cmp61 = icmp ne i8 %.lcssa, 0
  %or.cond51 = and i1 %cmp61, %cmp58
  br i1 %or.cond51, label %if.then62, label %for.end

if.then62:                                        ; preds = %while.end56
  %incdec.ptr63 = getelementptr inbounds i8, ptr %src1.addr.1.lcssa, i64 1
  %incdec.ptr64 = getelementptr inbounds i8, ptr %src2.addr.1.lcssa, i64 1
  %incdec.ptr65 = getelementptr inbounds i8, ptr %p.1.pn.lcssa, i64 2
  store i8 1, ptr %p.2.lcssa, align 1
  br label %for.cond, !llvm.loop !7

for.end:                                          ; preds = %while.end56
  %cmp68.not = icmp eq i8 %12, 0
  %spec.select = select i1 %cmp68.not, ptr %src2.addr.1.lcssa, ptr %src1.addr.1.lcssa
  br label %while.cond71

while.cond71:                                     ; preds = %while.cond71, %for.end
  %src2.addr.3 = phi ptr [ %spec.select, %for.end ], [ %incdec.ptr72, %while.cond71 ]
  %p.3 = phi ptr [ %p.2.lcssa, %for.end ], [ %incdec.ptr73, %while.cond71 ]
  %incdec.ptr72 = getelementptr inbounds i8, ptr %src2.addr.3, i64 1
  %13 = load i8, ptr %src2.addr.3, align 1
  %incdec.ptr73 = getelementptr inbounds i8, ptr %p.3, i64 1
  store i8 %13, ptr %p.3, align 1
  %cmp75.not = icmp eq i8 %13, 0
  br i1 %cmp75.not, label %while.end77, label %while.cond71, !llvm.loop !8

while.end77:                                      ; preds = %while.cond71
  %sub.ptr.lhs.cast = ptrtoint ptr %incdec.ptr73 to i64
  %sub.ptr.rhs.cast = ptrtoint ptr %dest to i64
  %sub.ptr.sub = sub i64 %sub.ptr.lhs.cast, %sub.ptr.rhs.cast
  %conv78 = trunc i64 %sub.ptr.sub to i32
  br label %return

return:                                           ; preds = %lor.lhs.false21, %lor.lhs.false23, %if.end41, %if.then, %if.then30, %while.end77
  %retval.0 = phi i32 [ %conv78, %while.end77 ], [ 0, %if.then30 ], [ 0, %if.then ], [ %add42, %if.end41 ], [ 0, %lor.lhs.false23 ], [ 0, %lor.lhs.false21 ]
  ret i32 %retval.0
}